
nqueens.out:     file format elf32-tradbigmips


Disassembly of section .text:

00000000 <_ftext>:
       0:	24000000 	li	zero,0
       4:	24010000 	li	at,0
       8:	24020000 	li	v0,0
       c:	24030000 	li	v1,0
      10:	24040000 	li	a0,0
      14:	24050000 	li	a1,0
      18:	24060000 	li	a2,0
      1c:	24070000 	li	a3,0
      20:	24080000 	li	t0,0
      24:	24090000 	li	t1,0
      28:	240a0000 	li	t2,0
      2c:	240b0000 	li	t3,0
      30:	240c0000 	li	t4,0
      34:	240d0000 	li	t5,0
      38:	240e0000 	li	t6,0
      3c:	240f0000 	li	t7,0
      40:	24100000 	li	s0,0
      44:	24110000 	li	s1,0
      48:	24120000 	li	s2,0
      4c:	24130000 	li	s3,0
      50:	24140000 	li	s4,0
      54:	24150000 	li	s5,0
      58:	24160000 	li	s6,0
      5c:	24170000 	li	s7,0
      60:	24180000 	li	t8,0
      64:	24190000 	li	t9,0
      68:	241a0000 	li	k0,0
      6c:	241b0000 	li	k1,0
      70:	241c0000 	li	gp,0
      74:	241d0000 	li	sp,0
      78:	241e0000 	li	s8,0
      7c:	241f0000 	li	ra,0
      80:	3c1d0010 	lui	sp,0x10
      84:	0c000309 	jal	c24 <begin>
      88:	00000000 	nop
      8c:	0380e025 	move	gp,gp
      90:	409cb800 	mtc0	gp,$23
      94:	00000000 	nop
      98:	409cc800 	mtc0	gp,$25
      9c:	08000027 	j	9c <_ftext+0x9c>
      a0:	00000000 	nop
      a4:	00000000 	nop
      a8:	00000000 	nop
      ac:	00000000 	nop

000000b0 <SolveProblem.constprop.0>:
      b0:	27bdfb20 	addiu	sp,sp,-1248
      b4:	27a204b0 	addiu	v0,sp,1200
      b8:	afbe04dc 	sw	s8,1244(sp)
      bc:	afb704d8 	sw	s7,1240(sp)
      c0:	afb604d4 	sw	s6,1236(sp)
      c4:	afb504d0 	sw	s5,1232(sp)
      c8:	afb404cc 	sw	s4,1228(sp)
      cc:	afb304c8 	sw	s3,1224(sp)
      d0:	afb204c4 	sw	s2,1220(sp)
      d4:	afb104c0 	sw	s1,1216(sp)
      d8:	afb004bc 	sw	s0,1212(sp)
      dc:	afbd04b0 	sw	sp,1200(sp)
      e0:	8fa304b0 	lw	v1,1200(sp)
      e4:	ac600000 	sw	zero,0(v1)
      e8:	ac600004 	sw	zero,4(v1)
      ec:	ac600008 	sw	zero,8(v1)
      f0:	2463000c 	addiu	v1,v1,12
      f4:	afa304b0 	sw	v1,1200(sp)
      f8:	1462fff9 	bne	v1,v0,e0 <SolveProblem.constprop.0+0x30>
      fc:	00000000 	nop
     100:	3c020000 	lui	v0,0x0
     104:	244c1314 	addiu	t4,v0,4884
     108:	ac401314 	sw	zero,4884(v0)
     10c:	24020008 	li	v0,8
     110:	ad820004 	sw	v0,4(t4)
     114:	24020007 	li	v0,7
     118:	ad82000c 	sw	v0,12(t4)
     11c:	24020006 	li	v0,6
     120:	ad820014 	sw	v0,20(t4)
     124:	24020005 	li	v0,5
     128:	ad82001c 	sw	v0,28(t4)
     12c:	24020004 	li	v0,4
     130:	ad820024 	sw	v0,36(t4)
     134:	24020003 	li	v0,3
     138:	240e0008 	li	t6,8
     13c:	ad82002c 	sw	v0,44(t4)
     140:	24020002 	li	v0,2
     144:	ad820034 	sw	v0,52(t4)
     148:	000e98c0 	sll	s3,t6,0x3
     14c:	24020001 	li	v0,1
     150:	ad800008 	sw	zero,8(t4)
     154:	ad800010 	sw	zero,16(t4)
     158:	ad800018 	sw	zero,24(t4)
     15c:	ad800020 	sw	zero,32(t4)
     160:	ad800028 	sw	zero,40(t4)
     164:	ad800030 	sw	zero,48(t4)
     168:	ad800038 	sw	zero,56(t4)
     16c:	ad82003c 	sw	v0,60(t4)
     170:	ad800040 	sw	zero,64(t4)
     174:	01931021 	addu	v0,t4,s3
     178:	8c430000 	lw	v1,0(v0)
     17c:	00004025 	move	t0,zero
     180:	3c120000 	lui	s2,0x0
     184:	00685823 	subu	t3,v1,t0
     188:	2404ffff 	li	a0,-1
     18c:	2407ffff 	li	a3,-1
     190:	ad800044 	sw	zero,68(t4)
     194:	0000c825 	move	t9,zero
     198:	24180001 	li	t8,1
     19c:	24100008 	li	s0,8
     1a0:	24110011 	li	s1,17
     1a4:	264912f0 	addiu	t1,s2,4848
     1a8:	25caffff 	addiu	t2,t6,-1
     1ac:	256b0009 	addiu	t3,t3,9
     1b0:	00687821 	addu	t7,v1,t0
     1b4:	10870128 	beq	a0,a3,658 <SolveProblem.constprop.0+0x5a8>
     1b8:	00000000 	nop
     1bc:	0083102a 	slt	v0,a0,v1
     1c0:	14400244 	bnez	v0,ad4 <SolveProblem.constprop.0+0xa24>
     1c4:	00000000 	nop
     1c8:	00046880 	sll	t5,a0,0x2
     1cc:	012d6821 	addu	t5,t1,t5
     1d0:	8db50000 	lw	s5,0(t5)
     1d4:	2482ffff 	addiu	v0,a0,-1
     1d8:	0095b023 	subu	s6,a0,s5
     1dc:	0095b821 	addu	s7,a0,s5
     1e0:	26d60009 	addiu	s6,s6,9
     1e4:	0015a040 	sll	s4,s5,0x1
     1e8:	00173040 	sll	a2,s7,0x1
     1ec:	00162840 	sll	a1,s6,0x1
     1f0:	0295a021 	addu	s4,s4,s5
     1f4:	00d73021 	addu	a2,a2,s7
     1f8:	00b62821 	addu	a1,a1,s6
     1fc:	0014a080 	sll	s4,s4,0x2
     200:	00063080 	sll	a2,a2,0x2
     204:	00052880 	sll	a1,a1,0x2
     208:	03b4a021 	addu	s4,sp,s4
     20c:	03a63021 	addu	a2,sp,a2
     210:	03a52821 	addu	a1,sp,a1
     214:	0120a825 	move	s5,t1
     218:	ae800000 	sw	zero,0(s4)
     21c:	acc00004 	sw	zero,4(a2)
     220:	aca00008 	sw	zero,8(a1)
     224:	1047010c 	beq	v0,a3,658 <SolveProblem.constprop.0+0x5a8>
     228:	00000000 	nop
     22c:	0043282a 	slt	a1,v0,v1
     230:	14a0022d 	bnez	a1,ae8 <SolveProblem.constprop.0+0xa38>
     234:	00000000 	nop
     238:	00022880 	sll	a1,v0,0x2
     23c:	01252821 	addu	a1,t1,a1
     240:	8cb70000 	lw	s7,0(a1)
     244:	248dfffe 	addiu	t5,a0,-2
     248:	0057b023 	subu	s6,v0,s7
     24c:	02e2f021 	addu	s8,s7,v0
     250:	26d60009 	addiu	s6,s6,9
     254:	0017a040 	sll	s4,s7,0x1
     258:	001e3040 	sll	a2,s8,0x1
     25c:	00162840 	sll	a1,s6,0x1
     260:	0297a021 	addu	s4,s4,s7
     264:	00de3021 	addu	a2,a2,s8
     268:	00b62821 	addu	a1,a1,s6
     26c:	0014a080 	sll	s4,s4,0x2
     270:	00063080 	sll	a2,a2,0x2
     274:	00052880 	sll	a1,a1,0x2
     278:	03b4a021 	addu	s4,sp,s4
     27c:	03a63021 	addu	a2,sp,a2
     280:	03a52821 	addu	a1,sp,a1
     284:	ae800000 	sw	zero,0(s4)
     288:	acc00004 	sw	zero,4(a2)
     28c:	aca00008 	sw	zero,8(a1)
     290:	11a700f1 	beq	t5,a3,658 <SolveProblem.constprop.0+0x5a8>
     294:	00000000 	nop
     298:	01a3282a 	slt	a1,t5,v1
     29c:	14a000ba 	bnez	a1,588 <SolveProblem.constprop.0+0x4d8>
     2a0:	00000000 	nop
     2a4:	000d1080 	sll	v0,t5,0x2
     2a8:	01221021 	addu	v0,t1,v0
     2ac:	8c570000 	lw	s7,0(v0)
     2b0:	2482fffd 	addiu	v0,a0,-3
     2b4:	01b7b023 	subu	s6,t5,s7
     2b8:	01b7f021 	addu	s8,t5,s7
     2bc:	26d60009 	addiu	s6,s6,9
     2c0:	0017a040 	sll	s4,s7,0x1
     2c4:	001e3040 	sll	a2,s8,0x1
     2c8:	00162840 	sll	a1,s6,0x1
     2cc:	0297a021 	addu	s4,s4,s7
     2d0:	00de3021 	addu	a2,a2,s8
     2d4:	00b62821 	addu	a1,a1,s6
     2d8:	0014a080 	sll	s4,s4,0x2
     2dc:	00063080 	sll	a2,a2,0x2
     2e0:	00052880 	sll	a1,a1,0x2
     2e4:	03b4a021 	addu	s4,sp,s4
     2e8:	03a63021 	addu	a2,sp,a2
     2ec:	03a52821 	addu	a1,sp,a1
     2f0:	ae800000 	sw	zero,0(s4)
     2f4:	acc00004 	sw	zero,4(a2)
     2f8:	aca00008 	sw	zero,8(a1)
     2fc:	104700d6 	beq	v0,a3,658 <SolveProblem.constprop.0+0x5a8>
     300:	00000000 	nop
     304:	0043282a 	slt	a1,v0,v1
     308:	14a001ef 	bnez	a1,ac8 <SolveProblem.constprop.0+0xa18>
     30c:	00000000 	nop
     310:	00022880 	sll	a1,v0,0x2
     314:	01252821 	addu	a1,t1,a1
     318:	8cb70000 	lw	s7,0(a1)
     31c:	248dfffc 	addiu	t5,a0,-4
     320:	0057b023 	subu	s6,v0,s7
     324:	0057f021 	addu	s8,v0,s7
     328:	26d60009 	addiu	s6,s6,9
     32c:	0017a040 	sll	s4,s7,0x1
     330:	001e3040 	sll	a2,s8,0x1
     334:	00162840 	sll	a1,s6,0x1
     338:	0297a021 	addu	s4,s4,s7
     33c:	00de3021 	addu	a2,a2,s8
     340:	00b62821 	addu	a1,a1,s6
     344:	0014a080 	sll	s4,s4,0x2
     348:	00063080 	sll	a2,a2,0x2
     34c:	00052880 	sll	a1,a1,0x2
     350:	03b4a021 	addu	s4,sp,s4
     354:	03a63021 	addu	a2,sp,a2
     358:	03a52821 	addu	a1,sp,a1
     35c:	ae800000 	sw	zero,0(s4)
     360:	acc00004 	sw	zero,4(a2)
     364:	aca00008 	sw	zero,8(a1)
     368:	11a700bb 	beq	t5,a3,658 <SolveProblem.constprop.0+0x5a8>
     36c:	00000000 	nop
     370:	01a3282a 	slt	a1,t5,v1
     374:	14a00084 	bnez	a1,588 <SolveProblem.constprop.0+0x4d8>
     378:	00000000 	nop
     37c:	000d1080 	sll	v0,t5,0x2
     380:	01221021 	addu	v0,t1,v0
     384:	8c570000 	lw	s7,0(v0)
     388:	2482fffb 	addiu	v0,a0,-5
     38c:	01b7b023 	subu	s6,t5,s7
     390:	02edf021 	addu	s8,s7,t5
     394:	26d60009 	addiu	s6,s6,9
     398:	0017a040 	sll	s4,s7,0x1
     39c:	001e3040 	sll	a2,s8,0x1
     3a0:	00162840 	sll	a1,s6,0x1
     3a4:	0297a021 	addu	s4,s4,s7
     3a8:	00de3021 	addu	a2,a2,s8
     3ac:	00b62821 	addu	a1,a1,s6
     3b0:	0014a080 	sll	s4,s4,0x2
     3b4:	00063080 	sll	a2,a2,0x2
     3b8:	00052880 	sll	a1,a1,0x2
     3bc:	03b4a021 	addu	s4,sp,s4
     3c0:	03a63021 	addu	a2,sp,a2
     3c4:	03a52821 	addu	a1,sp,a1
     3c8:	ae800000 	sw	zero,0(s4)
     3cc:	acc00004 	sw	zero,4(a2)
     3d0:	aca00008 	sw	zero,8(a1)
     3d4:	104700a0 	beq	v0,a3,658 <SolveProblem.constprop.0+0x5a8>
     3d8:	00000000 	nop
     3dc:	0043282a 	slt	a1,v0,v1
     3e0:	14a001b9 	bnez	a1,ac8 <SolveProblem.constprop.0+0xa18>
     3e4:	00000000 	nop
     3e8:	00022880 	sll	a1,v0,0x2
     3ec:	01252821 	addu	a1,t1,a1
     3f0:	8cb70000 	lw	s7,0(a1)
     3f4:	248dfffa 	addiu	t5,a0,-6
     3f8:	0057b023 	subu	s6,v0,s7
     3fc:	0057f021 	addu	s8,v0,s7
     400:	26d60009 	addiu	s6,s6,9
     404:	0017a040 	sll	s4,s7,0x1
     408:	001e3040 	sll	a2,s8,0x1
     40c:	00162840 	sll	a1,s6,0x1
     410:	0297a021 	addu	s4,s4,s7
     414:	00de3021 	addu	a2,a2,s8
     418:	00b62821 	addu	a1,a1,s6
     41c:	0014a080 	sll	s4,s4,0x2
     420:	00063080 	sll	a2,a2,0x2
     424:	00052880 	sll	a1,a1,0x2
     428:	03b4a021 	addu	s4,sp,s4
     42c:	03a63021 	addu	a2,sp,a2
     430:	03a52821 	addu	a1,sp,a1
     434:	ae800000 	sw	zero,0(s4)
     438:	acc00004 	sw	zero,4(a2)
     43c:	aca00008 	sw	zero,8(a1)
     440:	11a70085 	beq	t5,a3,658 <SolveProblem.constprop.0+0x5a8>
     444:	00000000 	nop
     448:	01a3282a 	slt	a1,t5,v1
     44c:	14a0004e 	bnez	a1,588 <SolveProblem.constprop.0+0x4d8>
     450:	00000000 	nop
     454:	000d1080 	sll	v0,t5,0x2
     458:	01221021 	addu	v0,t1,v0
     45c:	8c570000 	lw	s7,0(v0)
     460:	2486fff9 	addiu	a2,a0,-7
     464:	01b7b023 	subu	s6,t5,s7
     468:	01b7f021 	addu	s8,t5,s7
     46c:	26d60009 	addiu	s6,s6,9
     470:	0017a040 	sll	s4,s7,0x1
     474:	001e2840 	sll	a1,s8,0x1
     478:	00161040 	sll	v0,s6,0x1
     47c:	0297a021 	addu	s4,s4,s7
     480:	00be2821 	addu	a1,a1,s8
     484:	00561021 	addu	v0,v0,s6
     488:	0014a080 	sll	s4,s4,0x2
     48c:	00052880 	sll	a1,a1,0x2
     490:	00021080 	sll	v0,v0,0x2
     494:	03b4a021 	addu	s4,sp,s4
     498:	03a52821 	addu	a1,sp,a1
     49c:	03a21021 	addu	v0,sp,v0
     4a0:	ae800000 	sw	zero,0(s4)
     4a4:	aca00004 	sw	zero,4(a1)
     4a8:	ac400008 	sw	zero,8(v0)
     4ac:	10c7006a 	beq	a2,a3,658 <SolveProblem.constprop.0+0x5a8>
     4b0:	00000000 	nop
     4b4:	00c3102a 	slt	v0,a2,v1
     4b8:	14400183 	bnez	v0,ac8 <SolveProblem.constprop.0+0xa18>
     4bc:	00000000 	nop
     4c0:	00061080 	sll	v0,a2,0x2
     4c4:	01221021 	addu	v0,t1,v0
     4c8:	8c570000 	lw	s7,0(v0)
     4cc:	2482fff8 	addiu	v0,a0,-8
     4d0:	00d7b023 	subu	s6,a2,s7
     4d4:	00d7f021 	addu	s8,a2,s7
     4d8:	26d60009 	addiu	s6,s6,9
     4dc:	0017a040 	sll	s4,s7,0x1
     4e0:	001e6840 	sll	t5,s8,0x1
     4e4:	00162840 	sll	a1,s6,0x1
     4e8:	0297a021 	addu	s4,s4,s7
     4ec:	01be6821 	addu	t5,t5,s8
     4f0:	00b62821 	addu	a1,a1,s6
     4f4:	0014a080 	sll	s4,s4,0x2
     4f8:	000d6880 	sll	t5,t5,0x2
     4fc:	00052880 	sll	a1,a1,0x2
     500:	03b4a021 	addu	s4,sp,s4
     504:	03ad6821 	addu	t5,sp,t5
     508:	03a52821 	addu	a1,sp,a1
     50c:	ae800000 	sw	zero,0(s4)
     510:	ada00004 	sw	zero,4(t5)
     514:	aca00008 	sw	zero,8(a1)
     518:	1047004f 	beq	v0,a3,658 <SolveProblem.constprop.0+0x5a8>
     51c:	00000000 	nop
     520:	0043282a 	slt	a1,v0,v1
     524:	14a00183 	bnez	a1,b34 <SolveProblem.constprop.0+0xa84>
     528:	00000000 	nop
     52c:	00022880 	sll	a1,v0,0x2
     530:	01252821 	addu	a1,t1,a1
     534:	8cb60000 	lw	s6,0(a1)
     538:	0056a023 	subu	s4,v0,s6
     53c:	02c2b821 	addu	s7,s6,v0
     540:	26940009 	addiu	s4,s4,9
     544:	00166840 	sll	t5,s6,0x1
     548:	00173040 	sll	a2,s7,0x1
     54c:	00142840 	sll	a1,s4,0x1
     550:	01b66821 	addu	t5,t5,s6
     554:	00d73021 	addu	a2,a2,s7
     558:	00b42821 	addu	a1,a1,s4
     55c:	000d6880 	sll	t5,t5,0x2
     560:	00063080 	sll	a2,a2,0x2
     564:	00052880 	sll	a1,a1,0x2
     568:	03ad6821 	addu	t5,sp,t5
     56c:	03a63021 	addu	a2,sp,a2
     570:	03a52821 	addu	a1,sp,a1
     574:	ada00000 	sw	zero,0(t5)
     578:	acc00004 	sw	zero,4(a2)
     57c:	aca00008 	sw	zero,8(a1)
     580:	10900035 	beq	a0,s0,658 <SolveProblem.constprop.0+0x5a8>
     584:	00000000 	nop
     588:	00402025 	move	a0,v0
     58c:	000b1040 	sll	v0,t3,0x1
     590:	00083040 	sll	a2,t0,0x1
     594:	000f2840 	sll	a1,t7,0x1
     598:	004b1021 	addu	v0,v0,t3
     59c:	00c83021 	addu	a2,a2,t0
     5a0:	00af2821 	addu	a1,a1,t7
     5a4:	00045880 	sll	t3,a0,0x2
     5a8:	00063080 	sll	a2,a2,0x2
     5ac:	00052880 	sll	a1,a1,0x2
     5b0:	00021080 	sll	v0,v0,0x2
     5b4:	02aba821 	addu	s5,s5,t3
     5b8:	03a63021 	addu	a2,sp,a2
     5bc:	03a52821 	addu	a1,sp,a1
     5c0:	03a21021 	addu	v0,sp,v0
     5c4:	aea80000 	sw	t0,0(s5)
     5c8:	acd80000 	sw	t8,0(a2)
     5cc:	acb80004 	sw	t8,4(a1)
     5d0:	ac580008 	sw	t8,8(v0)
     5d4:	14900032 	bne	a0,s0,6a0 <SolveProblem.constprop.0+0x5f0>
     5d8:	00000000 	nop
     5dc:	27390001 	addiu	t9,t9,1
     5e0:	4099b800 	mtc0	t9,$23
     5e4:	25040008 	addiu	a0,t0,8
     5e8:	02284023 	subu	t0,s1,t0
     5ec:	00041840 	sll	v1,a0,0x1
     5f0:	00081040 	sll	v0,t0,0x1
     5f4:	00641821 	addu	v1,v1,a0
     5f8:	00481021 	addu	v0,v0,t0
     5fc:	00031880 	sll	v1,v1,0x2
     600:	00021080 	sll	v0,v0,0x2
     604:	03a31821 	addu	v1,sp,v1
     608:	03a21021 	addu	v0,sp,v0
     60c:	acc00000 	sw	zero,0(a2)
     610:	ac600004 	sw	zero,4(v1)
     614:	ac400008 	sw	zero,8(v0)
     618:	24040007 	li	a0,7
     61c:	1147011d 	beq	t2,a3,a94 <SolveProblem.constprop.0+0x9e4>
     620:	00000000 	nop
     624:	000a10c0 	sll	v0,t2,0x3
     628:	01407025 	move	t6,t2
     62c:	01821021 	addu	v0,t4,v0
     630:	000e98c0 	sll	s3,t6,0x3
     634:	8c480004 	lw	t0,4(v0)
     638:	01931021 	addu	v0,t4,s3
     63c:	8c430000 	lw	v1,0(v0)
     640:	25caffff 	addiu	t2,t6,-1
     644:	00685823 	subu	t3,v1,t0
     648:	256b0009 	addiu	t3,t3,9
     64c:	00687821 	addu	t7,v1,t0
     650:	1487feda 	bne	a0,a3,1bc <SolveProblem.constprop.0+0x10c>
     654:	00000000 	nop
     658:	00082840 	sll	a1,t0,0x1
     65c:	000f2040 	sll	a0,t7,0x1
     660:	000b1040 	sll	v0,t3,0x1
     664:	00a82821 	addu	a1,a1,t0
     668:	008f2021 	addu	a0,a0,t7
     66c:	004b1021 	addu	v0,v0,t3
     670:	00052880 	sll	a1,a1,0x2
     674:	00042080 	sll	a0,a0,0x2
     678:	00021080 	sll	v0,v0,0x2
     67c:	24060001 	li	a2,1
     680:	03a42021 	addu	a0,sp,a0
     684:	03a52821 	addu	a1,sp,a1
     688:	03a21021 	addu	v0,sp,v0
     68c:	ac860004 	sw	a2,4(a0)
     690:	ae4812f0 	sw	t0,4848(s2)
     694:	aca60000 	sw	a2,0(a1)
     698:	ac460008 	sw	a2,8(v0)
     69c:	00002025 	move	a0,zero
     6a0:	8fa20060 	lw	v0,96(sp)
     6a4:	14400017 	bnez	v0,704 <SolveProblem.constprop.0+0x654>
     6a8:	00000000 	nop
     6ac:	24650009 	addiu	a1,v1,9
     6b0:	00051040 	sll	v0,a1,0x1
     6b4:	00451021 	addu	v0,v0,a1
     6b8:	00021080 	sll	v0,v0,0x2
     6bc:	03a21021 	addu	v0,sp,v0
     6c0:	8c420004 	lw	v0,4(v0)
     6c4:	1440000f 	bnez	v0,704 <SolveProblem.constprop.0+0x654>
     6c8:	00000000 	nop
     6cc:	24650002 	addiu	a1,v1,2
     6d0:	00051040 	sll	v0,a1,0x1
     6d4:	00451021 	addu	v0,v0,a1
     6d8:	00021080 	sll	v0,v0,0x2
     6dc:	03a21021 	addu	v0,sp,v0
     6e0:	8c420008 	lw	v0,8(v0)
     6e4:	14400007 	bnez	v0,704 <SolveProblem.constprop.0+0x654>
     6e8:	00000000 	nop
     6ec:	01939821 	addu	s3,t4,s3
     6f0:	24620001 	addiu	v0,v1,1
     6f4:	ae620000 	sw	v0,0(s3)
     6f8:	24020008 	li	v0,8
     6fc:	ae620004 	sw	v0,4(s3)
     700:	01c05025 	move	t2,t6
     704:	8fa20054 	lw	v0,84(sp)
     708:	14400018 	bnez	v0,76c <SolveProblem.constprop.0+0x6bc>
     70c:	00000000 	nop
     710:	24650008 	addiu	a1,v1,8
     714:	00051040 	sll	v0,a1,0x1
     718:	00451021 	addu	v0,v0,a1
     71c:	00021080 	sll	v0,v0,0x2
     720:	03a21021 	addu	v0,sp,v0
     724:	8c420004 	lw	v0,4(v0)
     728:	14400010 	bnez	v0,76c <SolveProblem.constprop.0+0x6bc>
     72c:	00000000 	nop
     730:	24650003 	addiu	a1,v1,3
     734:	00051040 	sll	v0,a1,0x1
     738:	00451021 	addu	v0,v0,a1
     73c:	00021080 	sll	v0,v0,0x2
     740:	03a21021 	addu	v0,sp,v0
     744:	8c420008 	lw	v0,8(v0)
     748:	14400008 	bnez	v0,76c <SolveProblem.constprop.0+0x6bc>
     74c:	00000000 	nop
     750:	254a0001 	addiu	t2,t2,1
     754:	000a10c0 	sll	v0,t2,0x3
     758:	01821021 	addu	v0,t4,v0
     75c:	24650001 	addiu	a1,v1,1
     760:	ac450000 	sw	a1,0(v0)
     764:	24050007 	li	a1,7
     768:	ac450004 	sw	a1,4(v0)
     76c:	8fa20048 	lw	v0,72(sp)
     770:	14400018 	bnez	v0,7d4 <SolveProblem.constprop.0+0x724>
     774:	00000000 	nop
     778:	24650007 	addiu	a1,v1,7
     77c:	00051040 	sll	v0,a1,0x1
     780:	00451021 	addu	v0,v0,a1
     784:	00021080 	sll	v0,v0,0x2
     788:	03a21021 	addu	v0,sp,v0
     78c:	8c420004 	lw	v0,4(v0)
     790:	14400010 	bnez	v0,7d4 <SolveProblem.constprop.0+0x724>
     794:	00000000 	nop
     798:	24650004 	addiu	a1,v1,4
     79c:	00051040 	sll	v0,a1,0x1
     7a0:	00451021 	addu	v0,v0,a1
     7a4:	00021080 	sll	v0,v0,0x2
     7a8:	03a21021 	addu	v0,sp,v0
     7ac:	8c420008 	lw	v0,8(v0)
     7b0:	14400008 	bnez	v0,7d4 <SolveProblem.constprop.0+0x724>
     7b4:	00000000 	nop
     7b8:	254a0001 	addiu	t2,t2,1
     7bc:	000a10c0 	sll	v0,t2,0x3
     7c0:	01821021 	addu	v0,t4,v0
     7c4:	24650001 	addiu	a1,v1,1
     7c8:	ac450000 	sw	a1,0(v0)
     7cc:	24050006 	li	a1,6
     7d0:	ac450004 	sw	a1,4(v0)
     7d4:	8fa2003c 	lw	v0,60(sp)
     7d8:	14400018 	bnez	v0,83c <SolveProblem.constprop.0+0x78c>
     7dc:	00000000 	nop
     7e0:	24650006 	addiu	a1,v1,6
     7e4:	00051040 	sll	v0,a1,0x1
     7e8:	00451021 	addu	v0,v0,a1
     7ec:	00021080 	sll	v0,v0,0x2
     7f0:	03a21021 	addu	v0,sp,v0
     7f4:	8c420004 	lw	v0,4(v0)
     7f8:	14400010 	bnez	v0,83c <SolveProblem.constprop.0+0x78c>
     7fc:	00000000 	nop
     800:	24650005 	addiu	a1,v1,5
     804:	00051040 	sll	v0,a1,0x1
     808:	00451021 	addu	v0,v0,a1
     80c:	00021080 	sll	v0,v0,0x2
     810:	03a21021 	addu	v0,sp,v0
     814:	8c420008 	lw	v0,8(v0)
     818:	14400008 	bnez	v0,83c <SolveProblem.constprop.0+0x78c>
     81c:	00000000 	nop
     820:	254a0001 	addiu	t2,t2,1
     824:	000a10c0 	sll	v0,t2,0x3
     828:	01821021 	addu	v0,t4,v0
     82c:	24650001 	addiu	a1,v1,1
     830:	ac450000 	sw	a1,0(v0)
     834:	24050005 	li	a1,5
     838:	ac450004 	sw	a1,4(v0)
     83c:	8fa20030 	lw	v0,48(sp)
     840:	14400018 	bnez	v0,8a4 <SolveProblem.constprop.0+0x7f4>
     844:	00000000 	nop
     848:	24650005 	addiu	a1,v1,5
     84c:	00051040 	sll	v0,a1,0x1
     850:	00451021 	addu	v0,v0,a1
     854:	00021080 	sll	v0,v0,0x2
     858:	03a21021 	addu	v0,sp,v0
     85c:	8c420004 	lw	v0,4(v0)
     860:	14400010 	bnez	v0,8a4 <SolveProblem.constprop.0+0x7f4>
     864:	00000000 	nop
     868:	24650006 	addiu	a1,v1,6
     86c:	00051040 	sll	v0,a1,0x1
     870:	00451021 	addu	v0,v0,a1
     874:	00021080 	sll	v0,v0,0x2
     878:	03a21021 	addu	v0,sp,v0
     87c:	8c420008 	lw	v0,8(v0)
     880:	14400008 	bnez	v0,8a4 <SolveProblem.constprop.0+0x7f4>
     884:	00000000 	nop
     888:	254a0001 	addiu	t2,t2,1
     88c:	000a10c0 	sll	v0,t2,0x3
     890:	01821021 	addu	v0,t4,v0
     894:	24650001 	addiu	a1,v1,1
     898:	ac450000 	sw	a1,0(v0)
     89c:	24050004 	li	a1,4
     8a0:	ac450004 	sw	a1,4(v0)
     8a4:	8fa20024 	lw	v0,36(sp)
     8a8:	14400018 	bnez	v0,90c <SolveProblem.constprop.0+0x85c>
     8ac:	00000000 	nop
     8b0:	24650004 	addiu	a1,v1,4
     8b4:	00051040 	sll	v0,a1,0x1
     8b8:	00451021 	addu	v0,v0,a1
     8bc:	00021080 	sll	v0,v0,0x2
     8c0:	03a21021 	addu	v0,sp,v0
     8c4:	8c420004 	lw	v0,4(v0)
     8c8:	14400010 	bnez	v0,90c <SolveProblem.constprop.0+0x85c>
     8cc:	00000000 	nop
     8d0:	24650007 	addiu	a1,v1,7
     8d4:	00051040 	sll	v0,a1,0x1
     8d8:	00451021 	addu	v0,v0,a1
     8dc:	00021080 	sll	v0,v0,0x2
     8e0:	03a21021 	addu	v0,sp,v0
     8e4:	8c420008 	lw	v0,8(v0)
     8e8:	14400008 	bnez	v0,90c <SolveProblem.constprop.0+0x85c>
     8ec:	00000000 	nop
     8f0:	254a0001 	addiu	t2,t2,1
     8f4:	000a10c0 	sll	v0,t2,0x3
     8f8:	01821021 	addu	v0,t4,v0
     8fc:	24650001 	addiu	a1,v1,1
     900:	ac450000 	sw	a1,0(v0)
     904:	24050003 	li	a1,3
     908:	ac450004 	sw	a1,4(v0)
     90c:	8fa20018 	lw	v0,24(sp)
     910:	14400018 	bnez	v0,974 <SolveProblem.constprop.0+0x8c4>
     914:	00000000 	nop
     918:	24650003 	addiu	a1,v1,3
     91c:	00051040 	sll	v0,a1,0x1
     920:	00451021 	addu	v0,v0,a1
     924:	00021080 	sll	v0,v0,0x2
     928:	03a21021 	addu	v0,sp,v0
     92c:	8c420004 	lw	v0,4(v0)
     930:	14400010 	bnez	v0,974 <SolveProblem.constprop.0+0x8c4>
     934:	00000000 	nop
     938:	24650008 	addiu	a1,v1,8
     93c:	00051040 	sll	v0,a1,0x1
     940:	00451021 	addu	v0,v0,a1
     944:	00021080 	sll	v0,v0,0x2
     948:	03a21021 	addu	v0,sp,v0
     94c:	8c420008 	lw	v0,8(v0)
     950:	14400008 	bnez	v0,974 <SolveProblem.constprop.0+0x8c4>
     954:	00000000 	nop
     958:	254a0001 	addiu	t2,t2,1
     95c:	000a10c0 	sll	v0,t2,0x3
     960:	01821021 	addu	v0,t4,v0
     964:	24650001 	addiu	a1,v1,1
     968:	ac450000 	sw	a1,0(v0)
     96c:	24050002 	li	a1,2
     970:	ac450004 	sw	a1,4(v0)
     974:	8fa2000c 	lw	v0,12(sp)
     978:	1440002c 	bnez	v0,a2c <SolveProblem.constprop.0+0x97c>
     97c:	00000000 	nop
     980:	24650002 	addiu	a1,v1,2
     984:	00051040 	sll	v0,a1,0x1
     988:	00451021 	addu	v0,v0,a1
     98c:	00021080 	sll	v0,v0,0x2
     990:	03a21021 	addu	v0,sp,v0
     994:	8c420004 	lw	v0,4(v0)
     998:	14400024 	bnez	v0,a2c <SolveProblem.constprop.0+0x97c>
     99c:	00000000 	nop
     9a0:	24650009 	addiu	a1,v1,9
     9a4:	00051040 	sll	v0,a1,0x1
     9a8:	00451021 	addu	v0,v0,a1
     9ac:	00021080 	sll	v0,v0,0x2
     9b0:	03a21021 	addu	v0,sp,v0
     9b4:	8c420008 	lw	v0,8(v0)
     9b8:	1440001c 	bnez	v0,a2c <SolveProblem.constprop.0+0x97c>
     9bc:	00000000 	nop
     9c0:	254a0001 	addiu	t2,t2,1
     9c4:	000a10c0 	sll	v0,t2,0x3
     9c8:	8fa80000 	lw	t0,0(sp)
     9cc:	01823021 	addu	a2,t4,v0
     9d0:	24650001 	addiu	a1,v1,1
     9d4:	240b0001 	li	t3,1
     9d8:	acc50000 	sw	a1,0(a2)
     9dc:	accb0004 	sw	t3,4(a2)
     9e0:	1500ff11 	bnez	t0,628 <SolveProblem.constprop.0+0x578>
     9e4:	00000000 	nop
     9e8:	00053040 	sll	a2,a1,0x1
     9ec:	00c53021 	addu	a2,a2,a1
     9f0:	00063080 	sll	a2,a2,0x2
     9f4:	03a63021 	addu	a2,sp,a2
     9f8:	8cc60004 	lw	a2,4(a2)
     9fc:	14c0ff0a 	bnez	a2,628 <SolveProblem.constprop.0+0x578>
     a00:	00000000 	nop
     a04:	2463000a 	addiu	v1,v1,10
     a08:	00033040 	sll	a2,v1,0x1
     a0c:	00c31821 	addu	v1,a2,v1
     a10:	00031880 	sll	v1,v1,0x2
     a14:	03a31821 	addu	v1,sp,v1
     a18:	8c630008 	lw	v1,8(v1)
     a1c:	10600016 	beqz	v1,a78 <SolveProblem.constprop.0+0x9c8>
     a20:	00000000 	nop
     a24:	1000ff00 	b	628 <SolveProblem.constprop.0+0x578>
     a28:	00000000 	nop
     a2c:	8fa20000 	lw	v0,0(sp)
     a30:	1440fefa 	bnez	v0,61c <SolveProblem.constprop.0+0x56c>
     a34:	00000000 	nop
     a38:	24650001 	addiu	a1,v1,1
     a3c:	00051040 	sll	v0,a1,0x1
     a40:	00451021 	addu	v0,v0,a1
     a44:	00021080 	sll	v0,v0,0x2
     a48:	03a21021 	addu	v0,sp,v0
     a4c:	8c420004 	lw	v0,4(v0)
     a50:	1440fef2 	bnez	v0,61c <SolveProblem.constprop.0+0x56c>
     a54:	00000000 	nop
     a58:	2463000a 	addiu	v1,v1,10
     a5c:	00031040 	sll	v0,v1,0x1
     a60:	00431021 	addu	v0,v0,v1
     a64:	00021080 	sll	v0,v0,0x2
     a68:	03a21021 	addu	v0,sp,v0
     a6c:	8c420008 	lw	v0,8(v0)
     a70:	1440feea 	bnez	v0,61c <SolveProblem.constprop.0+0x56c>
     a74:	00000000 	nop
     a78:	254a0001 	addiu	t2,t2,1
     a7c:	000a10c0 	sll	v0,t2,0x3
     a80:	01821821 	addu	v1,t4,v0
     a84:	ac650000 	sw	a1,0(v1)
     a88:	ac600004 	sw	zero,4(v1)
     a8c:	1000fee6 	b	628 <SolveProblem.constprop.0+0x578>
     a90:	00000000 	nop
     a94:	4099c800 	mtc0	t9,$25
     a98:	8fbe04dc 	lw	s8,1244(sp)
     a9c:	8fb704d8 	lw	s7,1240(sp)
     aa0:	8fb604d4 	lw	s6,1236(sp)
     aa4:	8fb504d0 	lw	s5,1232(sp)
     aa8:	8fb404cc 	lw	s4,1228(sp)
     aac:	8fb304c8 	lw	s3,1224(sp)
     ab0:	8fb204c4 	lw	s2,1220(sp)
     ab4:	8fb104c0 	lw	s1,1216(sp)
     ab8:	8fb004bc 	lw	s0,1212(sp)
     abc:	27bd04e0 	addiu	sp,sp,1248
     ac0:	03e00008 	jr	ra
     ac4:	00000000 	nop
     ac8:	01a01025 	move	v0,t5
     acc:	1000feae 	b	588 <SolveProblem.constprop.0+0x4d8>
     ad0:	00000000 	nop
     ad4:	3c150000 	lui	s5,0x0
     ad8:	24840001 	addiu	a0,a0,1
     adc:	26b512f0 	addiu	s5,s5,4848
     ae0:	1000feaa 	b	58c <SolveProblem.constprop.0+0x4dc>
     ae4:	00000000 	nop
     ae8:	000b1040 	sll	v0,t3,0x1
     aec:	00083040 	sll	a2,t0,0x1
     af0:	000f2840 	sll	a1,t7,0x1
     af4:	004b1021 	addu	v0,v0,t3
     af8:	00c83021 	addu	a2,a2,t0
     afc:	00af2821 	addu	a1,a1,t7
     b00:	00063080 	sll	a2,a2,0x2
     b04:	00052880 	sll	a1,a1,0x2
     b08:	00021080 	sll	v0,v0,0x2
     b0c:	240b0001 	li	t3,1
     b10:	03a63021 	addu	a2,sp,a2
     b14:	03a52821 	addu	a1,sp,a1
     b18:	03a21021 	addu	v0,sp,v0
     b1c:	ada80000 	sw	t0,0(t5)
     b20:	accb0000 	sw	t3,0(a2)
     b24:	acab0004 	sw	t3,4(a1)
     b28:	ac4b0008 	sw	t3,8(v0)
     b2c:	1000fedc 	b	6a0 <SolveProblem.constprop.0+0x5f0>
     b30:	00000000 	nop
     b34:	00c01025 	move	v0,a2
     b38:	1000fe93 	b	588 <SolveProblem.constprop.0+0x4d8>
     b3c:	00000000 	nop

00000b40 <print_uart>:
     b40:	90830000 	lbu	v1,0(a0)
     b44:	1060000a 	beqz	v1,b70 <print_uart+0x30>
     b48:	00000000 	nop
     b4c:	8c023ffc 	lw	v0,16380(zero)
     b50:	30420100 	andi	v0,v0,0x100
     b54:	1440fffd 	bnez	v0,b4c <print_uart+0xc>
     b58:	00000000 	nop
     b5c:	24840001 	addiu	a0,a0,1
     b60:	a0033ffc 	sb	v1,16380(zero)
     b64:	90830000 	lbu	v1,0(a0)
     b68:	1460fff8 	bnez	v1,b4c <print_uart+0xc>
     b6c:	00000000 	nop
     b70:	03e00008 	jr	ra
     b74:	00000000 	nop

00000b78 <putc_uart>:
     b78:	8c023ffc 	lw	v0,16380(zero)
     b7c:	30420100 	andi	v0,v0,0x100
     b80:	1440fffd 	bnez	v0,b78 <putc_uart>
     b84:	00000000 	nop
     b88:	a0043ffc 	sb	a0,16380(zero)
     b8c:	03e00008 	jr	ra
     b90:	00000000 	nop

00000b94 <print>:
     b94:	10000003 	b	ba4 <print+0x10>
     b98:	00000000 	nop
     b9c:	24840001 	addiu	a0,a0,1
     ba0:	a0023ff0 	sb	v0,16368(zero)
     ba4:	90820000 	lbu	v0,0(a0)
     ba8:	1440fffc 	bnez	v0,b9c <print+0x8>
     bac:	00000000 	nop
     bb0:	a0003ff0 	sb	zero,16368(zero)
     bb4:	03e00008 	jr	ra
     bb8:	00000000 	nop

00000bbc <print_char>:
     bbc:	a0043ff0 	sb	a0,16368(zero)
     bc0:	03e00008 	jr	ra
     bc4:	00000000 	nop

00000bc8 <print_num>:
     bc8:	3c07cccc 	lui	a3,0xcccc
     bcc:	24060004 	li	a2,4
     bd0:	240303e8 	li	v1,1000
     bd4:	34e7cccd 	ori	a3,a3,0xcccd
     bd8:	0083001b 	divu	zero,a0,v1
     bdc:	006001f4 	teq	v1,zero,0x7
     be0:	00002812 	mflo	a1
     be4:	00002010 	mfhi	a0
     be8:	24a50030 	addiu	a1,a1,48
     bec:	30a500ff 	andi	a1,a1,0xff
     bf0:	8c023ffc 	lw	v0,16380(zero)
     bf4:	30420100 	andi	v0,v0,0x100
     bf8:	1440fffd 	bnez	v0,bf0 <print_num+0x28>
     bfc:	00000000 	nop
     c00:	00670019 	multu	v1,a3
     c04:	24c6ffff 	addiu	a2,a2,-1
     c08:	00001810 	mfhi	v1
     c0c:	a0053ffc 	sb	a1,16380(zero)
     c10:	000318c2 	srl	v1,v1,0x3
     c14:	14c0fff0 	bnez	a2,bd8 <print_num+0x10>
     c18:	00000000 	nop
     c1c:	03e00008 	jr	ra
     c20:	00000000 	nop

00000c24 <begin>:
     c24:	27bdffe8 	addiu	sp,sp,-24
     c28:	3c020000 	lui	v0,0x0
     c2c:	24030009 	li	v1,9
     c30:	ac43159c 	sw	v1,5532(v0)
     c34:	afbf0014 	sw	ra,20(sp)
     c38:	0c00002c 	jal	b0 <SolveProblem.constprop.0>
     c3c:	00000000 	nop
     c40:	8fbf0014 	lw	ra,20(sp)
     c44:	00001025 	move	v0,zero
     c48:	27bd0018 	addiu	sp,sp,24
     c4c:	03e00008 	jr	ra
     c50:	00000000 	nop

00000c54 <SolveProblem>:
     c54:	27bdfb30 	addiu	sp,sp,-1232
     c58:	27a204b0 	addiu	v0,sp,1200
     c5c:	afb404cc 	sw	s4,1228(sp)
     c60:	afb304c8 	sw	s3,1224(sp)
     c64:	afb204c4 	sw	s2,1220(sp)
     c68:	afb104c0 	sw	s1,1216(sp)
     c6c:	afb004bc 	sw	s0,1212(sp)
     c70:	afbd04b0 	sw	sp,1200(sp)
     c74:	8fa304b0 	lw	v1,1200(sp)
     c78:	ac600000 	sw	zero,0(v1)
     c7c:	ac600004 	sw	zero,4(v1)
     c80:	ac600008 	sw	zero,8(v1)
     c84:	2463000c 	addiu	v1,v1,12
     c88:	afa304b0 	sw	v1,1200(sp)
     c8c:	1462fff9 	bne	v1,v0,c74 <SolveProblem+0x20>
     c90:	00000000 	nop
     c94:	2498ffff 	addiu	t8,a0,-1
     c98:	0700017e 	bltz	t8,1294 <SolveProblem+0x640>
     c9c:	00000000 	nop
     ca0:	3c0f0000 	lui	t7,0x0
     ca4:	25ef1314 	addiu	t7,t7,4884
     ca8:	01e01025 	move	v0,t7
     cac:	03006825 	move	t5,t8
     cb0:	2403ffff 	li	v1,-1
     cb4:	ac4d0004 	sw	t5,4(v0)
     cb8:	25adffff 	addiu	t5,t5,-1
     cbc:	ac400000 	sw	zero,0(v0)
     cc0:	24420008 	addiu	v0,v0,8
     cc4:	15a3fffb 	bne	t5,v1,cb4 <SolveProblem+0x60>
     cc8:	00000000 	nop
     ccc:	0004c840 	sll	t9,a0,0x1
     cd0:	0324c821 	addu	t9,t9,a0
     cd4:	0019c880 	sll	t9,t9,0x2
     cd8:	001810c0 	sll	v0,t8,0x3
     cdc:	2739fff4 	addiu	t9,t9,-12
     ce0:	03008825 	move	s1,t8
     ce4:	3c0c0000 	lui	t4,0x0
     ce8:	01e21021 	addu	v0,t7,v0
     cec:	2406ffff 	li	a2,-1
     cf0:	8c480000 	lw	t0,0(v0)
     cf4:	03b9c821 	addu	t9,sp,t9
     cf8:	00005825 	move	t3,zero
     cfc:	00008025 	move	s0,zero
     d00:	258c12f0 	addiu	t4,t4,4848
     d04:	2407ffff 	li	a3,-1
     d08:	240e0001 	li	t6,1
     d0c:	2629ffff 	addiu	t1,s1,-1
     d10:	04c00133 	bltz	a2,11e0 <SolveProblem+0x58c>
     d14:	00000000 	nop
     d18:	00c8102a 	slt	v0,a2,t0
     d1c:	14400130 	bnez	v0,11e0 <SolveProblem+0x58c>
     d20:	00000000 	nop
     d24:	00061080 	sll	v0,a2,0x2
     d28:	01821021 	addu	v0,t4,v0
     d2c:	8c520000 	lw	s2,0(v0)
     d30:	24c2ffff 	addiu	v0,a2,-1
     d34:	00d28823 	subu	s1,a2,s2
     d38:	02469821 	addu	s3,s2,a2
     d3c:	02248821 	addu	s1,s1,a0
     d40:	00125040 	sll	t2,s2,0x1
     d44:	00132840 	sll	a1,s3,0x1
     d48:	00111840 	sll	v1,s1,0x1
     d4c:	01525021 	addu	t2,t2,s2
     d50:	00b32821 	addu	a1,a1,s3
     d54:	00711821 	addu	v1,v1,s1
     d58:	000a5080 	sll	t2,t2,0x2
     d5c:	00052880 	sll	a1,a1,0x2
     d60:	00031880 	sll	v1,v1,0x2
     d64:	03aa5021 	addu	t2,sp,t2
     d68:	03a52821 	addu	a1,sp,a1
     d6c:	03a31821 	addu	v1,sp,v1
     d70:	ad400000 	sw	zero,0(t2)
     d74:	aca00004 	sw	zero,4(a1)
     d78:	ac600008 	sw	zero,8(v1)
     d7c:	1047011c 	beq	v0,a3,11f0 <SolveProblem+0x59c>
     d80:	00000000 	nop
     d84:	0048182a 	slt	v1,v0,t0
     d88:	1460013f 	bnez	v1,1288 <SolveProblem+0x634>
     d8c:	00000000 	nop
     d90:	00021880 	sll	v1,v0,0x2
     d94:	01831821 	addu	v1,t4,v1
     d98:	8c730000 	lw	s3,0(v1)
     d9c:	24c3fffe 	addiu	v1,a2,-2
     da0:	00539023 	subu	s2,v0,s3
     da4:	0053a021 	addu	s4,v0,s3
     da8:	02449021 	addu	s2,s2,a0
     dac:	00138840 	sll	s1,s3,0x1
     db0:	00145040 	sll	t2,s4,0x1
     db4:	00122840 	sll	a1,s2,0x1
     db8:	02338821 	addu	s1,s1,s3
     dbc:	01545021 	addu	t2,t2,s4
     dc0:	00b22821 	addu	a1,a1,s2
     dc4:	00118880 	sll	s1,s1,0x2
     dc8:	000a5080 	sll	t2,t2,0x2
     dcc:	00052880 	sll	a1,a1,0x2
     dd0:	03b18821 	addu	s1,sp,s1
     dd4:	03aa5021 	addu	t2,sp,t2
     dd8:	03a52821 	addu	a1,sp,a1
     ddc:	ae200000 	sw	zero,0(s1)
     de0:	ad400004 	sw	zero,4(t2)
     de4:	aca00008 	sw	zero,8(a1)
     de8:	10670101 	beq	v1,a3,11f0 <SolveProblem+0x59c>
     dec:	00000000 	nop
     df0:	0068282a 	slt	a1,v1,t0
     df4:	14a0011f 	bnez	a1,1274 <SolveProblem+0x620>
     df8:	00000000 	nop
     dfc:	00031080 	sll	v0,v1,0x2
     e00:	01821021 	addu	v0,t4,v0
     e04:	8c530000 	lw	s3,0(v0)
     e08:	24c2fffd 	addiu	v0,a2,-3
     e0c:	00739023 	subu	s2,v1,s3
     e10:	0073a021 	addu	s4,v1,s3
     e14:	02449021 	addu	s2,s2,a0
     e18:	00138840 	sll	s1,s3,0x1
     e1c:	00145040 	sll	t2,s4,0x1
     e20:	00122840 	sll	a1,s2,0x1
     e24:	02338821 	addu	s1,s1,s3
     e28:	01545021 	addu	t2,t2,s4
     e2c:	00b22821 	addu	a1,a1,s2
     e30:	00118880 	sll	s1,s1,0x2
     e34:	000a5080 	sll	t2,t2,0x2
     e38:	00052880 	sll	a1,a1,0x2
     e3c:	03b18821 	addu	s1,sp,s1
     e40:	03aa5021 	addu	t2,sp,t2
     e44:	03a52821 	addu	a1,sp,a1
     e48:	ae200000 	sw	zero,0(s1)
     e4c:	ad400004 	sw	zero,4(t2)
     e50:	aca00008 	sw	zero,8(a1)
     e54:	104700e6 	beq	v0,a3,11f0 <SolveProblem+0x59c>
     e58:	00000000 	nop
     e5c:	0048282a 	slt	a1,v0,t0
     e60:	14a000a0 	bnez	a1,10e4 <SolveProblem+0x490>
     e64:	00000000 	nop
     e68:	00021880 	sll	v1,v0,0x2
     e6c:	01831821 	addu	v1,t4,v1
     e70:	8c730000 	lw	s3,0(v1)
     e74:	24c3fffc 	addiu	v1,a2,-4
     e78:	00539023 	subu	s2,v0,s3
     e7c:	0053a021 	addu	s4,v0,s3
     e80:	02449021 	addu	s2,s2,a0
     e84:	00138840 	sll	s1,s3,0x1
     e88:	00145040 	sll	t2,s4,0x1
     e8c:	00122840 	sll	a1,s2,0x1
     e90:	02338821 	addu	s1,s1,s3
     e94:	01545021 	addu	t2,t2,s4
     e98:	00b22821 	addu	a1,a1,s2
     e9c:	00118880 	sll	s1,s1,0x2
     ea0:	000a5080 	sll	t2,t2,0x2
     ea4:	00052880 	sll	a1,a1,0x2
     ea8:	03b18821 	addu	s1,sp,s1
     eac:	03aa5021 	addu	t2,sp,t2
     eb0:	03a52821 	addu	a1,sp,a1
     eb4:	ae200000 	sw	zero,0(s1)
     eb8:	ad400004 	sw	zero,4(t2)
     ebc:	aca00008 	sw	zero,8(a1)
     ec0:	106700cb 	beq	v1,a3,11f0 <SolveProblem+0x59c>
     ec4:	00000000 	nop
     ec8:	0068282a 	slt	a1,v1,t0
     ecc:	14a000e9 	bnez	a1,1274 <SolveProblem+0x620>
     ed0:	00000000 	nop
     ed4:	00031080 	sll	v0,v1,0x2
     ed8:	01821021 	addu	v0,t4,v0
     edc:	8c530000 	lw	s3,0(v0)
     ee0:	24c2fffb 	addiu	v0,a2,-5
     ee4:	00739023 	subu	s2,v1,s3
     ee8:	0073a021 	addu	s4,v1,s3
     eec:	02449021 	addu	s2,s2,a0
     ef0:	00138840 	sll	s1,s3,0x1
     ef4:	00145040 	sll	t2,s4,0x1
     ef8:	00122840 	sll	a1,s2,0x1
     efc:	02338821 	addu	s1,s1,s3
     f00:	01545021 	addu	t2,t2,s4
     f04:	00b22821 	addu	a1,a1,s2
     f08:	00118880 	sll	s1,s1,0x2
     f0c:	000a5080 	sll	t2,t2,0x2
     f10:	00052880 	sll	a1,a1,0x2
     f14:	03b18821 	addu	s1,sp,s1
     f18:	03aa5021 	addu	t2,sp,t2
     f1c:	03a52821 	addu	a1,sp,a1
     f20:	ae200000 	sw	zero,0(s1)
     f24:	ad400004 	sw	zero,4(t2)
     f28:	aca00008 	sw	zero,8(a1)
     f2c:	104700b0 	beq	v0,a3,11f0 <SolveProblem+0x59c>
     f30:	00000000 	nop
     f34:	0048282a 	slt	a1,v0,t0
     f38:	14a0006a 	bnez	a1,10e4 <SolveProblem+0x490>
     f3c:	00000000 	nop
     f40:	00021880 	sll	v1,v0,0x2
     f44:	01831821 	addu	v1,t4,v1
     f48:	8c730000 	lw	s3,0(v1)
     f4c:	24c3fffa 	addiu	v1,a2,-6
     f50:	00539023 	subu	s2,v0,s3
     f54:	0053a021 	addu	s4,v0,s3
     f58:	02449021 	addu	s2,s2,a0
     f5c:	00138840 	sll	s1,s3,0x1
     f60:	00145040 	sll	t2,s4,0x1
     f64:	00122840 	sll	a1,s2,0x1
     f68:	02338821 	addu	s1,s1,s3
     f6c:	01545021 	addu	t2,t2,s4
     f70:	00b22821 	addu	a1,a1,s2
     f74:	00118880 	sll	s1,s1,0x2
     f78:	000a5080 	sll	t2,t2,0x2
     f7c:	00052880 	sll	a1,a1,0x2
     f80:	03b18821 	addu	s1,sp,s1
     f84:	03aa5021 	addu	t2,sp,t2
     f88:	03a52821 	addu	a1,sp,a1
     f8c:	ae200000 	sw	zero,0(s1)
     f90:	ad400004 	sw	zero,4(t2)
     f94:	aca00008 	sw	zero,8(a1)
     f98:	10670095 	beq	v1,a3,11f0 <SolveProblem+0x59c>
     f9c:	00000000 	nop
     fa0:	0068282a 	slt	a1,v1,t0
     fa4:	14a000b3 	bnez	a1,1274 <SolveProblem+0x620>
     fa8:	00000000 	nop
     fac:	00031080 	sll	v0,v1,0x2
     fb0:	01821021 	addu	v0,t4,v0
     fb4:	8c530000 	lw	s3,0(v0)
     fb8:	24c2fff9 	addiu	v0,a2,-7
     fbc:	00739023 	subu	s2,v1,s3
     fc0:	0073a021 	addu	s4,v1,s3
     fc4:	02449021 	addu	s2,s2,a0
     fc8:	00138840 	sll	s1,s3,0x1
     fcc:	00145040 	sll	t2,s4,0x1
     fd0:	00122840 	sll	a1,s2,0x1
     fd4:	02338821 	addu	s1,s1,s3
     fd8:	01545021 	addu	t2,t2,s4
     fdc:	00b22821 	addu	a1,a1,s2
     fe0:	00118880 	sll	s1,s1,0x2
     fe4:	000a5080 	sll	t2,t2,0x2
     fe8:	00052880 	sll	a1,a1,0x2
     fec:	03b18821 	addu	s1,sp,s1
     ff0:	03aa5021 	addu	t2,sp,t2
     ff4:	03a52821 	addu	a1,sp,a1
     ff8:	ae200000 	sw	zero,0(s1)
     ffc:	ad400004 	sw	zero,4(t2)
    1000:	aca00008 	sw	zero,8(a1)
    1004:	1047007a 	beq	v0,a3,11f0 <SolveProblem+0x59c>
    1008:	00000000 	nop
    100c:	0048282a 	slt	a1,v0,t0
    1010:	14a00034 	bnez	a1,10e4 <SolveProblem+0x490>
    1014:	00000000 	nop
    1018:	00021880 	sll	v1,v0,0x2
    101c:	01831821 	addu	v1,t4,v1
    1020:	8c730000 	lw	s3,0(v1)
    1024:	24c3fff8 	addiu	v1,a2,-8
    1028:	00539023 	subu	s2,v0,s3
    102c:	0053a021 	addu	s4,v0,s3
    1030:	02449021 	addu	s2,s2,a0
    1034:	00138840 	sll	s1,s3,0x1
    1038:	00145040 	sll	t2,s4,0x1
    103c:	00122840 	sll	a1,s2,0x1
    1040:	02338821 	addu	s1,s1,s3
    1044:	01545021 	addu	t2,t2,s4
    1048:	00b22821 	addu	a1,a1,s2
    104c:	00118880 	sll	s1,s1,0x2
    1050:	000a5080 	sll	t2,t2,0x2
    1054:	00052880 	sll	a1,a1,0x2
    1058:	03b18821 	addu	s1,sp,s1
    105c:	03aa5021 	addu	t2,sp,t2
    1060:	03a52821 	addu	a1,sp,a1
    1064:	ae200000 	sw	zero,0(s1)
    1068:	ad400004 	sw	zero,4(t2)
    106c:	aca00008 	sw	zero,8(a1)
    1070:	1067005f 	beq	v1,a3,11f0 <SolveProblem+0x59c>
    1074:	00000000 	nop
    1078:	0068282a 	slt	a1,v1,t0
    107c:	14a0007d 	bnez	a1,1274 <SolveProblem+0x620>
    1080:	00000000 	nop
    1084:	00031080 	sll	v0,v1,0x2
    1088:	01821021 	addu	v0,t4,v0
    108c:	8c520000 	lw	s2,0(v0)
    1090:	24c2fff7 	addiu	v0,a2,-9
    1094:	00728823 	subu	s1,v1,s2
    1098:	02439821 	addu	s3,s2,v1
    109c:	02248821 	addu	s1,s1,a0
    10a0:	00125040 	sll	t2,s2,0x1
    10a4:	00133040 	sll	a2,s3,0x1
    10a8:	00112840 	sll	a1,s1,0x1
    10ac:	01525021 	addu	t2,t2,s2
    10b0:	00d33021 	addu	a2,a2,s3
    10b4:	00b12821 	addu	a1,a1,s1
    10b8:	000a5080 	sll	t2,t2,0x2
    10bc:	00063080 	sll	a2,a2,0x2
    10c0:	00052880 	sll	a1,a1,0x2
    10c4:	03aa5021 	addu	t2,sp,t2
    10c8:	03a63021 	addu	a2,sp,a2
    10cc:	03a52821 	addu	a1,sp,a1
    10d0:	ad400000 	sw	zero,0(t2)
    10d4:	acc00004 	sw	zero,4(a2)
    10d8:	aca00008 	sw	zero,8(a1)
    10dc:	10470044 	beq	v0,a3,11f0 <SolveProblem+0x59c>
    10e0:	00000000 	nop
    10e4:	00603025 	move	a2,v1
    10e8:	010b8823 	subu	s1,t0,t3
    10ec:	02248821 	addu	s1,s1,a0
    10f0:	010b9021 	addu	s2,t0,t3
    10f4:	00112840 	sll	a1,s1,0x1
    10f8:	000b1840 	sll	v1,t3,0x1
    10fc:	00125040 	sll	t2,s2,0x1
    1100:	00b12821 	addu	a1,a1,s1
    1104:	006b1821 	addu	v1,v1,t3
    1108:	01525021 	addu	t2,t2,s2
    110c:	00068880 	sll	s1,a2,0x2
    1110:	00031880 	sll	v1,v1,0x2
    1114:	000a5080 	sll	t2,t2,0x2
    1118:	00052880 	sll	a1,a1,0x2
    111c:	01918821 	addu	s1,t4,s1
    1120:	03a31821 	addu	v1,sp,v1
    1124:	03aa5021 	addu	t2,sp,t2
    1128:	03a52821 	addu	a1,sp,a1
    112c:	ae2b0000 	sw	t3,0(s1)
    1130:	ac6e0000 	sw	t6,0(v1)
    1134:	ad4e0004 	sw	t6,4(t2)
    1138:	acae0008 	sw	t6,8(a1)
    113c:	10d80030 	beq	a2,t8,1200 <SolveProblem+0x5ac>
    1140:	00000000 	nop
    1144:	00085040 	sll	t2,t0,0x1
    1148:	01485021 	addu	t2,t2,t0
    114c:	000a5080 	sll	t2,t2,0x2
    1150:	25450020 	addiu	a1,t2,32
    1154:	03a52821 	addu	a1,sp,a1
    1158:	03201025 	move	v0,t9
    115c:	01208825 	move	s1,t1
    1160:	03001825 	move	v1,t8
    1164:	25080001 	addiu	t0,t0,1
    1168:	8c490000 	lw	t1,0(v0)
    116c:	004a5821 	addu	t3,v0,t2
    1170:	2442fff4 	addiu	v0,v0,-12
    1174:	1520000c 	bnez	t1,11a8 <SolveProblem+0x554>
    1178:	00000000 	nop
    117c:	8d690010 	lw	t1,16(t3)
    1180:	15200009 	bnez	t1,11a8 <SolveProblem+0x554>
    1184:	00000000 	nop
    1188:	8ca90000 	lw	t1,0(a1)
    118c:	15200006 	bnez	t1,11a8 <SolveProblem+0x554>
    1190:	00000000 	nop
    1194:	26310001 	addiu	s1,s1,1
    1198:	001148c0 	sll	t1,s1,0x3
    119c:	01e94821 	addu	t1,t7,t1
    11a0:	ad230004 	sw	v1,4(t1)
    11a4:	ad280000 	sw	t0,0(t1)
    11a8:	2463ffff 	addiu	v1,v1,-1
    11ac:	24a5000c 	addiu	a1,a1,12
    11b0:	1467ffed 	bne	v1,a3,1168 <SolveProblem+0x514>
    11b4:	00000000 	nop
    11b8:	12270025 	beq	s1,a3,1250 <SolveProblem+0x5fc>
    11bc:	00000000 	nop
    11c0:	001110c0 	sll	v0,s1,0x3
    11c4:	01e21821 	addu	v1,t7,v0
    11c8:	01e21021 	addu	v0,t7,v0
    11cc:	8c6b0004 	lw	t3,4(v1)
    11d0:	8c480000 	lw	t0,0(v0)
    11d4:	2629ffff 	addiu	t1,s1,-1
    11d8:	04c1fecf 	bgez	a2,d18 <SolveProblem+0xc4>
    11dc:	00000000 	nop
    11e0:	00c01025 	move	v0,a2
    11e4:	24c60001 	addiu	a2,a2,1
    11e8:	1000ffbf 	b	10e8 <SolveProblem+0x494>
    11ec:	00000000 	nop
    11f0:	01a01025 	move	v0,t5
    11f4:	00003025 	move	a2,zero
    11f8:	1000ffbb 	b	10e8 <SolveProblem+0x494>
    11fc:	00000000 	nop
    1200:	26100001 	addiu	s0,s0,1
    1204:	4090b800 	mtc0	s0,$23
    1208:	00cb4023 	subu	t0,a2,t3
    120c:	01044021 	addu	t0,t0,a0
    1210:	00cb5821 	addu	t3,a2,t3
    1214:	000b3040 	sll	a2,t3,0x1
    1218:	00082840 	sll	a1,t0,0x1
    121c:	00cb3021 	addu	a2,a2,t3
    1220:	00a82821 	addu	a1,a1,t0
    1224:	00063080 	sll	a2,a2,0x2
    1228:	00052880 	sll	a1,a1,0x2
    122c:	03a63021 	addu	a2,sp,a2
    1230:	03a52821 	addu	a1,sp,a1
    1234:	01208825 	move	s1,t1
    1238:	acc00004 	sw	zero,4(a2)
    123c:	ac600000 	sw	zero,0(v1)
    1240:	aca00008 	sw	zero,8(a1)
    1244:	00403025 	move	a2,v0
    1248:	1627ffdd 	bne	s1,a3,11c0 <SolveProblem+0x56c>
    124c:	00000000 	nop
    1250:	4090c800 	mtc0	s0,$25
    1254:	8fb404cc 	lw	s4,1228(sp)
    1258:	8fb304c8 	lw	s3,1224(sp)
    125c:	8fb204c4 	lw	s2,1220(sp)
    1260:	8fb104c0 	lw	s1,1216(sp)
    1264:	8fb004bc 	lw	s0,1212(sp)
    1268:	27bd04d0 	addiu	sp,sp,1232
    126c:	03e00008 	jr	ra
    1270:	00000000 	nop
    1274:	00402825 	move	a1,v0
    1278:	00601025 	move	v0,v1
    127c:	00a01825 	move	v1,a1
    1280:	1000ff98 	b	10e4 <SolveProblem+0x490>
    1284:	00000000 	nop
    1288:	00c01825 	move	v1,a2
    128c:	1000ff95 	b	10e4 <SolveProblem+0x490>
    1290:	00000000 	nop
    1294:	00008025 	move	s0,zero
    1298:	4090c800 	mtc0	s0,$25
    129c:	8fb404cc 	lw	s4,1228(sp)
    12a0:	8fb304c8 	lw	s3,1224(sp)
    12a4:	8fb204c4 	lw	s2,1220(sp)
    12a8:	8fb104c0 	lw	s1,1216(sp)
    12ac:	8fb004bc 	lw	s0,1212(sp)
    12b0:	27bd04d0 	addiu	sp,sp,1232
    12b4:	03e00008 	jr	ra
    12b8:	00000000 	nop
    12bc:	00000000 	nop
