
quickSort.out:     file format elf32-tradbigmips


Disassembly of section .text:

00000000 <_ftext>:
   0:	24000000 	li	zero,0
   4:	24010000 	li	at,0
   8:	24020000 	li	v0,0
   c:	24030000 	li	v1,0
  10:	24040000 	li	a0,0
  14:	24050000 	li	a1,0
  18:	24060000 	li	a2,0
  1c:	24070000 	li	a3,0
  20:	24080000 	li	t0,0
  24:	24090000 	li	t1,0
  28:	240a0000 	li	t2,0
  2c:	240b0000 	li	t3,0
  30:	240c0000 	li	t4,0
  34:	240d0000 	li	t5,0
  38:	240e0000 	li	t6,0
  3c:	240f0000 	li	t7,0
  40:	24100000 	li	s0,0
  44:	24110000 	li	s1,0
  48:	24120000 	li	s2,0
  4c:	24130000 	li	s3,0
  50:	24140000 	li	s4,0
  54:	24150000 	li	s5,0
  58:	24160000 	li	s6,0
  5c:	24170000 	li	s7,0
  60:	24180000 	li	t8,0
  64:	24190000 	li	t9,0
  68:	241a0000 	li	k0,0
  6c:	241b0000 	li	k1,0
  70:	241c0000 	li	gp,0
  74:	241d0000 	li	sp,0
  78:	241e0000 	li	s8,0
  7c:	241f0000 	li	ra,0
  80:	3c1d0010 	lui	sp,0x10
  84:	0c000098 	jal	260 <begin>
  88:	00000000 	nop
  8c:	0380e025 	move	gp,gp
  90:	409cb800 	mtc0	gp,$23
  94:	00000000 	nop
  98:	409cc800 	mtc0	gp,$25
  9c:	08000027 	j	9c <_ftext+0x9c>
  a0:	00000000 	nop
  a4:	00000000 	nop
  a8:	00000000 	nop
  ac:	00000000 	nop

000000b0 <quickSort>:
  b0:	27bde0c0 	addiu	sp,sp,-8000
  b4:	00003025 	move	a2,zero
  b8:	00006825 	move	t5,zero
  bc:	afa00fa0 	sw	zero,4000(sp)
  c0:	afa50000 	sw	a1,0(sp)
  c4:	240effff 	li	t6,-1
  c8:	240f03e7 	li	t7,999
  cc:	10000008 	b	f0 <quickSort+0x40>
  d0:	00000000 	nop
  d4:	25adffff 	addiu	t5,t5,-1
  d8:	11ae0059 	beq	t5,t6,240 <quickSort+0x190>
  dc:	00000000 	nop
  e0:	000d1080 	sll	v0,t5,0x2
  e4:	03a21021 	addu	v0,sp,v0
  e8:	8c450000 	lw	a1,0(v0)
  ec:	8c460fa0 	lw	a2,4000(v0)
  f0:	24a2ffff 	addiu	v0,a1,-1
  f4:	00c2602a 	slt	t4,a2,v0
  f8:	1180fff6 	beqz	t4,d4 <quickSort+0x24>
  fc:	00000000 	nop
 100:	00061880 	sll	v1,a2,0x2
 104:	00833821 	addu	a3,a0,v1
 108:	8ce90000 	lw	t1,0(a3)
 10c:	11af0050 	beq	t5,t7,250 <quickSort+0x1a0>
 110:	00000000 	nop
 114:	00023880 	sll	a3,v0,0x2
 118:	00875821 	addu	t3,a0,a3
 11c:	8d680000 	lw	t0,0(t3)
 120:	0109502a 	slt	t2,t0,t1
 124:	15400012 	bnez	t2,170 <quickSort+0xc0>
 128:	00000000 	nop
 12c:	00c2402a 	slt	t0,a2,v0
 130:	11000015 	beqz	t0,188 <quickSort+0xd8>
 134:	00000000 	nop
 138:	24e7fffc 	addiu	a3,a3,-4
 13c:	00873821 	addu	a3,a0,a3
 140:	10000004 	b	154 <quickSort+0xa4>
 144:	00000000 	nop
 148:	24e7fffc 	addiu	a3,a3,-4
 14c:	1046000e 	beq	v0,a2,188 <quickSort+0xd8>
 150:	00000000 	nop
 154:	8ce80000 	lw	t0,0(a3)
 158:	2442ffff 	addiu	v0,v0,-1
 15c:	0109502a 	slt	t2,t0,t1
 160:	00e05825 	move	t3,a3
 164:	1140fff8 	beqz	t2,148 <quickSort+0x98>
 168:	00000000 	nop
 16c:	00c2602a 	slt	t4,a2,v0
 170:	11800005 	beqz	t4,188 <quickSort+0xd8>
 174:	00000000 	nop
 178:	00831821 	addu	v1,a0,v1
 17c:	24c60001 	addiu	a2,a2,1
 180:	ac680000 	sw	t0,0(v1)
 184:	00061880 	sll	v1,a2,0x2
 188:	00835021 	addu	t2,a0,v1
 18c:	8d470000 	lw	a3,0(t2)
 190:	0127402a 	slt	t0,t1,a3
 194:	15000011 	bnez	t0,1dc <quickSort+0x12c>
 198:	00000000 	nop
 19c:	00c2382a 	slt	a3,a2,v0
 1a0:	10e00019 	beqz	a3,208 <quickSort+0x158>
 1a4:	00000000 	nop
 1a8:	24630004 	addiu	v1,v1,4
 1ac:	00831821 	addu	v1,a0,v1
 1b0:	10000004 	b	1c4 <quickSort+0x114>
 1b4:	00000000 	nop
 1b8:	24630004 	addiu	v1,v1,4
 1bc:	10460013 	beq	v0,a2,20c <quickSort+0x15c>
 1c0:	00000000 	nop
 1c4:	8c670000 	lw	a3,0(v1)
 1c8:	24c60001 	addiu	a2,a2,1
 1cc:	0127402a 	slt	t0,t1,a3
 1d0:	00605025 	move	t2,v1
 1d4:	1100fff8 	beqz	t0,1b8 <quickSort+0x108>
 1d8:	00000000 	nop
 1dc:	00c2182a 	slt	v1,a2,v0
 1e0:	10600009 	beqz	v1,208 <quickSort+0x158>
 1e4:	00000000 	nop
 1e8:	2442ffff 	addiu	v0,v0,-1
 1ec:	00c2602a 	slt	t4,a2,v0
 1f0:	ad670000 	sw	a3,0(t3)
 1f4:	11800004 	beqz	t4,208 <quickSort+0x158>
 1f8:	00000000 	nop
 1fc:	00061880 	sll	v1,a2,0x2
 200:	1000ffc4 	b	114 <quickSort+0x64>
 204:	00000000 	nop
 208:	00c01025 	move	v0,a2
 20c:	25a70001 	addiu	a3,t5,1
 210:	000d3080 	sll	a2,t5,0x2
 214:	00071880 	sll	v1,a3,0x2
 218:	03a31821 	addu	v1,sp,v1
 21c:	24480001 	addiu	t0,v0,1
 220:	03a63021 	addu	a2,sp,a2
 224:	ac650000 	sw	a1,0(v1)
 228:	ad490000 	sw	t1,0(t2)
 22c:	ac680fa0 	sw	t0,4000(v1)
 230:	acc20000 	sw	v0,0(a2)
 234:	00e06825 	move	t5,a3
 238:	1000ffa9 	b	e0 <quickSort+0x30>
 23c:	00000000 	nop
 240:	24020001 	li	v0,1
 244:	27bd1f40 	addiu	sp,sp,8000
 248:	03e00008 	jr	ra
 24c:	00000000 	nop
 250:	00001025 	move	v0,zero
 254:	27bd1f40 	addiu	sp,sp,8000
 258:	03e00008 	jr	ra
 25c:	00000000 	nop

00000260 <begin>:
 260:	3c040000 	lui	a0,0x0
 264:	24830330 	addiu	v1,a0,816
 268:	3c020001 	lui	v0,0x1
 26c:	00431021 	addu	v0,v0,v1
 270:	8c439c40 	lw	v1,-25536(v0)
 274:	27bdffe8 	addiu	sp,sp,-24
 278:	3402a414 	li	v0,0xa414
 27c:	afbf0014 	sw	ra,20(sp)
 280:	10620010 	beq	v1,v0,2c4 <begin+0x64>
 284:	00000000 	nop
 288:	24020001 	li	v0,1
 28c:	4082c000 	mtc0	v0,$24
 290:	24054e20 	li	a1,20000
 294:	24840330 	addiu	a0,a0,816
 298:	0c00002c 	jal	b0 <quickSort>
 29c:	00000000 	nop
 2a0:	8c820030 	lw	v0,48(a0)
 2a4:	24030029 	li	v1,41
 2a8:	10430010 	beq	v0,v1,2ec <begin+0x8c>
 2ac:	00000000 	nop
 2b0:	4082c000 	mtc0	v0,$24
 2b4:	8fbf0014 	lw	ra,20(sp)
 2b8:	27bd0018 	addiu	sp,sp,24
 2bc:	03e00008 	jr	ra
 2c0:	00000000 	nop
 2c4:	24020001 	li	v0,1
 2c8:	4082b800 	mtc0	v0,$23
 2cc:	24054e20 	li	a1,20000
 2d0:	24840330 	addiu	a0,a0,816
 2d4:	0c00002c 	jal	b0 <quickSort>
 2d8:	00000000 	nop
 2dc:	8c820030 	lw	v0,48(a0)
 2e0:	24030029 	li	v1,41
 2e4:	1443fff2 	bne	v0,v1,2b0 <begin+0x50>
 2e8:	00000000 	nop
 2ec:	4082c800 	mtc0	v0,$25
 2f0:	8fbf0014 	lw	ra,20(sp)
 2f4:	27bd0018 	addiu	sp,sp,24
 2f8:	03e00008 	jr	ra
 2fc:	00000000 	nop
 300:	00000000 	nop
 304:	00000000 	nop
 308:	00000000 	nop
 30c:	00000000 	nop
 310:	00000000 	nop
 314:	00000000 	nop
 318:	00000000 	nop
 31c:	00000000 	nop
 320:	00000000 	nop
 324:	00000000 	nop
 328:	00000000 	nop
 32c:	00000000 	nop
