
coin.out:     file format elf32-tradbigmips


Disassembly of section .text:

00000000 <_ftext>:
   0:	24000000 	li	zero,0
   4:	24010000 	li	at,0
   8:	24020000 	li	v0,0
   c:	24030000 	li	v1,0
  10:	24040000 	li	a0,0
  14:	24050000 	li	a1,0
  18:	24060000 	li	a2,0
  1c:	24070000 	li	a3,0
  20:	24080000 	li	t0,0
  24:	24090000 	li	t1,0
  28:	240a0000 	li	t2,0
  2c:	240b0000 	li	t3,0
  30:	240c0000 	li	t4,0
  34:	240d0000 	li	t5,0
  38:	240e0000 	li	t6,0
  3c:	240f0000 	li	t7,0
  40:	24100000 	li	s0,0
  44:	24110000 	li	s1,0
  48:	24120000 	li	s2,0
  4c:	24130000 	li	s3,0
  50:	24140000 	li	s4,0
  54:	24150000 	li	s5,0
  58:	24160000 	li	s6,0
  5c:	24170000 	li	s7,0
  60:	24180000 	li	t8,0
  64:	24190000 	li	t9,0
  68:	241a0000 	li	k0,0
  6c:	241b0000 	li	k1,0
  70:	241c0000 	li	gp,0
  74:	241d0000 	li	sp,0
  78:	241e0000 	li	s8,0
  7c:	241f0000 	li	ra,0
  80:	3c1d0010 	lui	sp,0x10
  84:	0c00002c 	jal	b0 <begin>
  88:	00000000 	nop
  8c:	0380e025 	move	gp,gp
  90:	409cb800 	mtc0	gp,$23
  94:	00000000 	nop
  98:	409cc800 	mtc0	gp,$25
  9c:	08000027 	j	9c <_ftext+0x9c>
  a0:	00000000 	nop
  a4:	00000000 	nop
  a8:	00000000 	nop
  ac:	00000000 	nop

000000b0 <begin>:
  b0:	27bdf008 	addiu	sp,sp,-4088
  b4:	27a40194 	addiu	a0,sp,404
  b8:	27a20004 	addiu	v0,sp,4
  bc:	24030001 	li	v1,1
  c0:	ac430000 	sw	v1,0(v0)
  c4:	24420004 	addiu	v0,v0,4
  c8:	1444fffd 	bne	v0,a0,c0 <begin+0x10>
  cc:	00000000 	nop
  d0:	3c0d0000 	lui	t5,0x0
  d4:	25ad0230 	addiu	t5,t5,560
  d8:	27a7016c 	addiu	a3,sp,364
  dc:	240a005a 	li	t2,90
  e0:	27ac0004 	addiu	t4,sp,4
  e4:	240e0065 	li	t6,101
  e8:	00004825 	move	t1,zero
  ec:	00005825 	move	t3,zero
  f0:	24080001 	li	t0,1
  f4:	25220001 	addiu	v0,t1,1
  f8:	00021080 	sll	v0,v0,0x2
  fc:	03a21021 	addu	v0,sp,v0
 100:	8c430000 	lw	v1,0(v0)
 104:	00031823 	negu	v1,v1
 108:	ac430000 	sw	v1,0(v0)
 10c:	27a20004 	addiu	v0,sp,4
 110:	00001825 	move	v1,zero
 114:	8c440000 	lw	a0,0(v0)
 118:	24420004 	addiu	v0,v0,4
 11c:	00641821 	addu	v1,v1,a0
 120:	1447fffc 	bne	v0,a3,114 <begin+0x64>
 124:	00000000 	nop
 128:	25080001 	addiu	t0,t0,1
 12c:	0148102a 	slt	v0,t2,t0
 130:	256b0001 	addiu	t3,t3,1
 134:	14400018 	bnez	v0,198 <begin+0xe8>
 138:	00000000 	nop
 13c:	106a001c 	beq	v1,t2,1b0 <begin+0x100>
 140:	00000000 	nop
 144:	00084843 	sra	t1,t0,0x1
 148:	00081880 	sll	v1,t0,0x2
 14c:	00093080 	sll	a2,t1,0x2
 150:	03a31821 	addu	v1,sp,v1
 154:	01863021 	addu	a2,t4,a2
 158:	27a20004 	addiu	v0,sp,4
 15c:	8c650000 	lw	a1,0(v1)
 160:	8c440000 	lw	a0,0(v0)
 164:	00052823 	negu	a1,a1
 168:	ac450000 	sw	a1,0(v0)
 16c:	00042023 	negu	a0,a0
 170:	24420004 	addiu	v0,v0,4
 174:	ac640000 	sw	a0,0(v1)
 178:	2463fffc 	addiu	v1,v1,-4
 17c:	1446fff7 	bne	v0,a2,15c <begin+0xac>
 180:	00000000 	nop
 184:	31020001 	andi	v0,t0,0x1
 188:	1040ffe0 	beqz	v0,10c <begin+0x5c>
 18c:	00000000 	nop
 190:	1000ffd8 	b	f4 <begin+0x44>
 194:	00000000 	nop
 198:	106a0005 	beq	v1,t2,1b0 <begin+0x100>
 19c:	00000000 	nop
 1a0:	00004825 	move	t1,zero
 1a4:	24080001 	li	t0,1
 1a8:	1000ffd2 	b	f4 <begin+0x44>
 1ac:	00000000 	nop
 1b0:	8da30000 	lw	v1,0(t5)
 1b4:	2542ffa7 	addiu	v0,t2,-89
 1b8:	106b000d 	beq	v1,t3,1f0 <begin+0x140>
 1bc:	00000000 	nop
 1c0:	4082c000 	mtc0	v0,$24
 1c4:	254a0001 	addiu	t2,t2,1
 1c8:	25ad0004 	addiu	t5,t5,4
 1cc:	24e70004 	addiu	a3,a3,4
 1d0:	154effc5 	bne	t2,t6,e8 <begin+0x38>
 1d4:	00000000 	nop
 1d8:	2402000b 	li	v0,11
 1dc:	4082c800 	mtc0	v0,$25
 1e0:	00001025 	move	v0,zero
 1e4:	27bd0ff8 	addiu	sp,sp,4088
 1e8:	03e00008 	jr	ra
 1ec:	00000000 	nop
 1f0:	4082b800 	mtc0	v0,$23
 1f4:	1000fff3 	b	1c4 <begin+0x114>
 1f8:	00000000 	nop
 1fc:	00000000 	nop
 200:	00000000 	nop
 204:	00000000 	nop
 208:	00000000 	nop
 20c:	00000000 	nop
 210:	00000000 	nop
 214:	00000000 	nop
 218:	00000000 	nop
 21c:	00000000 	nop
 220:	00000000 	nop
 224:	00000000 	nop
 228:	00000000 	nop
 22c:	00000000 	nop
