
test.out:     file format elf32-tradbigmips


Disassembly of section .text:

00000000 <_ftext>:
   0:	3c080000 	lui	t0,0x0
   4:	25080120 	addiu	t0,t0,288
   8:	24090100 	li	t1,256
   c:	240a0000 	li	t2,0

00000010 <init_loop>:
  10:	000a5880 	sll	t3,t2,0x2
  14:	ad0b0000 	sw	t3,0(t0)
  18:	21080004 	addi	t0,t0,4
  1c:	214a0001 	addi	t2,t2,1
  20:	1549fffb 	bne	t2,t1,10 <init_loop>
  24:	00000000 	nop
  28:	3c080000 	lui	t0,0x0
  2c:	25080120 	addiu	t0,t0,288
  30:	240a0000 	li	t2,0

00000034 <verify_loop>:
  34:	8d0b0000 	lw	t3,0(t0)
  38:	408bb800 	mtc0	t3,$23
  3c:	000a6080 	sll	t4,t2,0x2
  40:	156c001e 	bne	t3,t4,bc <test_fail>
  44:	00000000 	nop
  48:	21080004 	addi	t0,t0,4
  4c:	214a0001 	addi	t2,t2,1
  50:	1549fff8 	bne	t2,t1,34 <verify_loop>
  54:	00000000 	nop
  58:	3c080000 	lui	t0,0x0
  5c:	25080120 	addiu	t0,t0,288
  60:	240a0000 	li	t2,0

00000064 <random_store_loop>:
  64:	000a58c0 	sll	t3,t2,0x3
  68:	ad0b0000 	sw	t3,0(t0)
  6c:	21080004 	addi	t0,t0,4
  70:	214a0001 	addi	t2,t2,1
  74:	1549fffb 	bne	t2,t1,64 <random_store_loop>
  78:	00000000 	nop
  7c:	3c080000 	lui	t0,0x0
  80:	25080120 	addiu	t0,t0,288
  84:	240a0000 	li	t2,0

00000088 <random_verify_loop>:
  88:	8d0b0000 	lw	t3,0(t0)
  8c:	000a60c0 	sll	t4,t2,0x3
  90:	156c000a 	bne	t3,t4,bc <test_fail>
  94:	00000000 	nop
  98:	21080004 	addi	t0,t0,4
  9c:	214a0001 	addi	t2,t2,1
  a0:	1549fff9 	bne	t2,t1,88 <random_verify_loop>
  a4:	00000000 	nop
  a8:	240f0001 	li	t7,1
  ac:	408fb800 	mtc0	t7,$23
  b0:	408fc800 	mtc0	t7,$25
  b4:	00000000 	nop
  b8:	00000000 	nop

000000bc <test_fail>:
  bc:	240f0001 	li	t7,1
  c0:	408fc000 	mtc0	t7,$24
  c4:	408fc800 	mtc0	t7,$25
  c8:	408fc800 	mtc0	t7,$25
  cc:	00000000 	nop
  d0:	00000000 	nop
  d4:	08000035 	j	d4 <test_fail+0x18>
  d8:	00000000 	nop
  dc:	00000000 	nop
  e0:	00000000 	nop
  e4:	00000000 	nop
  e8:	00000000 	nop
  ec:	00000000 	nop
  f0:	00000000 	nop
  f4:	00000000 	nop
  f8:	00000000 	nop
  fc:	00000000 	nop
 100:	00000000 	nop
 104:	00000000 	nop
 108:	00000000 	nop
 10c:	00000000 	nop
 110:	00000000 	nop
 114:	00000000 	nop
 118:	00000000 	nop
 11c:	00000000 	nop
